; Function Attrs: mustprogress uwtable
define void @_ZN5arrow2io20BufferedOutputStream5WriteERKSt10shared_ptrINS_6BufferEE(ptr noalias sret(%"class.arrow::Status") align 8 %agg.result, ptr nocapture noundef nonnull readonly align 8 dereferenceable(16) %this, ptr noundef nonnull align 8 dereferenceable(16) %data) unnamed_addr #0 align 2 {
entry:
  %impl_ = getelementptr inbounds i8, ptr %this, i64 8
  %0 = load ptr, ptr %impl_, align 8
  %1 = load ptr, ptr %data, align 8, !noalias !79
  %is_cpu_.i.i = getelementptr inbounds i8, ptr %1, i64 9
  %2 = load i8, ptr %is_cpu_.i.i, align 1, !noalias !79
  %3 = and i8 %2, 1
  %tobool.not.i.i = icmp eq i8 %3, 0
  %data_.i.i = getelementptr inbounds i8, ptr %1, i64 16
  %4 = load ptr, ptr %data_.i.i, align 8, !noalias !79
  %cond.i.i = select i1 %tobool.not.i.i, ptr null, ptr %4
  %size_.i.i = getelementptr inbounds i8, ptr %1, i64 24
  %5 = load i64, ptr %size_.i.i, align 8, !noalias !79
  tail call void @_ZN5arrow2io20BufferedOutputStream4Impl7DoWriteEPKvlRKSt10shared_ptrINS_6BufferEE(ptr sret(%"class.arrow::Status") align 8 %agg.result, ptr noundef nonnull align 8 dereferenceable(120) %0, ptr noundef %cond.i.i, i64 noundef %5, ptr noundef nonnull align 8 dereferenceable(16) %data)
  ret void
}